target datalayout = "e-m:e-p270:32:32-p271:32:32-p272:64:64-i64:64-i128:128-f80:128-n8:16:32:64-S128"
target triple = "x86_64-pc-linux-gnu"

%struct._zend_phpdbg_globals = type { [11 x %struct._zend_array], %struct._zend_array, %struct._zend_array, ptr, ptr, %struct.phpdbg_frame_t, i32, ptr, %struct.phpdbg_lexer_data, ptr, %struct.sigaction, i32, i64, %struct.phpdbg_btree, %struct.phpdbg_btree, %struct._zend_array, %struct._zend_array, %struct._zend_array, %struct._zend_array, ptr, ptr, i8, ptr, ptr, ptr, i64, ptr, %struct._zval_struct, i32, i32, i8, i8, ptr, ptr, ptr, %struct._zend_array, ptr, ptr, ptr, [3 x %struct.anon.8], ptr, %struct.anon.9, i64, [2 x ptr], [3 x ptr], ptr, i8, ptr, ptr, [500 x i8], i32, %struct.phpdbg_signal_safe_mem, ptr, i64, ptr, i64 }
%struct.phpdbg_frame_t = type { i32, ptr, ptr }
%struct.phpdbg_lexer_data = type { i32, ptr, ptr, ptr, ptr, i32 }
%struct.sigaction = type { %union.anon.7, %struct.__sigset_t, i32, ptr }
%union.anon.7 = type { ptr }
%struct.__sigset_t = type { [16 x i64] }
%struct.phpdbg_btree = type { i64, i64, i8, ptr }
%struct._zval_struct = type { %union._zend_value, %union.anon, %union.anon.2 }
%union._zend_value = type { i64 }
%union.anon = type { i32 }
%union.anon.2 = type { i32 }
%struct._zend_array = type { %struct._zend_refcounted_h, %union.anon.4, i32, %union.anon.6, i32, i32, i32, i32, i64, ptr }
%struct._zend_refcounted_h = type { i32, %union.anon.3 }
%union.anon.3 = type { i32 }
%union.anon.4 = type { i32 }
%union.anon.6 = type { ptr }
%struct.anon.8 = type { i32 }
%struct.anon.9 = type { i8, i32, i32, ptr, i32 }
%struct.phpdbg_signal_safe_mem = type { ptr, i8, ptr, ptr }
%struct._phpdbg_watchpoint_t = type { %union.anon.27, i64, i32, ptr, %struct._zend_array, ptr, %union.anon.28 }
%union.anon.27 = type { ptr }
%union.anon.28 = type { %struct._zend_array }
%struct.uffdio_writeprotect = type { %struct.uffdio_range, i64 }
%struct.uffdio_range = type { i64, i64 }
%struct._phpdbg_watch_collision = type { %struct._phpdbg_watchpoint_t, %struct._phpdbg_watchpoint_t, %struct._zend_array }
%struct.uffdio_register = type { %struct.uffdio_range, i64, i64 }

@phpdbg_globals = external global %struct._zend_phpdbg_globals, align 8
@phpdbg_pagesize = internal global i64 0, align 8

; Function Attrs: nounwind uwtable
define internal void @phpdbg_change_watchpoint_access(ptr noundef %0, i32 noundef %1) #0 {
  %3 = alloca ptr, align 8
  %4 = alloca ptr, align 8
  %5 = alloca ptr, align 8
  %6 = alloca i64, align 8
  %7 = alloca ptr, align 8
  %8 = alloca ptr, align 8
  %9 = alloca i32, align 4
  %10 = alloca ptr, align 8
  %11 = alloca i64, align 8
  %12 = alloca %struct.uffdio_range, align 8
  %13 = alloca %struct.uffdio_register, align 8
  %14 = alloca %struct.uffdio_writeprotect, align 8
  %15 = alloca %struct.uffdio_register, align 8
  store ptr %0, ptr %8, align 8
  store i32 %1, ptr %9, align 4
  %16 = load ptr, ptr %8, align 8
  %17 = getelementptr inbounds %struct._phpdbg_watchpoint_t, ptr %16, i32 0, i32 0
  %18 = load ptr, ptr %17, align 8
  store ptr %18, ptr %7, align 8
  %19 = load ptr, ptr %7, align 8
  %20 = ptrtoint ptr %19 to i64
  %21 = load i64, ptr @phpdbg_pagesize, align 8
  %22 = sub nsw i64 %21, 1
  %23 = xor i64 %22, -1
  %24 = and i64 %20, %23
  %25 = inttoptr i64 %24 to ptr
  store ptr %25, ptr %10, align 8
  %26 = load ptr, ptr %8, align 8
  %27 = getelementptr inbounds %struct._phpdbg_watchpoint_t, ptr %26, i32 0, i32 0
  %28 = load ptr, ptr %27, align 8
  %29 = load ptr, ptr %8, align 8
  %30 = getelementptr inbounds %struct._phpdbg_watchpoint_t, ptr %29, i32 0, i32 1
  %31 = load i64, ptr %30, align 8
  store ptr %28, ptr %5, align 8
  store i64 %31, ptr %6, align 8
  %32 = load ptr, ptr %5, align 8
  %33 = ptrtoint ptr %32 to i64
  %34 = load i64, ptr %6, align 8
  %35 = add i64 %33, %34
  %36 = sub i64 %35, 1
  %37 = inttoptr i64 %36 to ptr
  store ptr %37, ptr %3, align 8
  %38 = load ptr, ptr %3, align 8
  %39 = ptrtoint ptr %38 to i64
  %40 = load i64, ptr @phpdbg_pagesize, align 8
  %41 = sub nsw i64 %40, 1
  %42 = xor i64 %41, -1
  %43 = and i64 %39, %42
  %44 = load ptr, ptr %5, align 8
  store ptr %44, ptr %4, align 8
  %45 = load ptr, ptr %4, align 8
  %46 = ptrtoint ptr %45 to i64
  %47 = load i64, ptr @phpdbg_pagesize, align 8
  %48 = sub nsw i64 %47, 1
  %49 = xor i64 %48, -1
  %50 = and i64 %46, %49
  %51 = sub i64 %43, %50
  %52 = load i64, ptr @phpdbg_pagesize, align 8
  %53 = add i64 %51, %52
  store i64 %53, ptr %11, align 8
  %54 = load i32, ptr getelementptr inbounds (%struct._zend_phpdbg_globals, ptr @phpdbg_globals, i32 0, i32 11), align 8
  %55 = icmp ne i32 %54, 0
  br i1 %55, label %56, label %81

56:                                               ; preds = %2
  %57 = getelementptr inbounds %struct.uffdio_range, ptr %12, i32 0, i32 0
  %58 = load ptr, ptr %10, align 8
  %59 = ptrtoint ptr %58 to i64
  store i64 %59, ptr %57, align 8
  %60 = getelementptr inbounds %struct.uffdio_range, ptr %12, i32 0, i32 1
  %61 = load i64, ptr %11, align 8
  store i64 %61, ptr %60, align 8
  %62 = load i32, ptr %9, align 4
  %63 = icmp eq i32 %62, 1
  br i1 %63, label %64, label %74

64:                                               ; preds = %56
  %65 = getelementptr inbounds %struct.uffdio_register, ptr %13, i32 0, i32 0
  call void @llvm.memcpy.p0.p0.i64(ptr align 8 %65, ptr align 8 %12, i64 16, i1 false)
  %66 = getelementptr inbounds %struct.uffdio_register, ptr %13, i32 0, i32 1
  store i64 2, ptr %66, align 8
  %67 = getelementptr inbounds %struct.uffdio_register, ptr %13, i32 0, i32 2
  store i64 0, ptr %67, align 8
  %68 = getelementptr inbounds %struct.uffdio_writeprotect, ptr %14, i32 0, i32 0
  call void @llvm.memcpy.p0.p0.i64(ptr align 8 %68, ptr align 8 %12, i64 16, i1 false)
  %69 = getelementptr inbounds %struct.uffdio_writeprotect, ptr %14, i32 0, i32 1
  store i64 1, ptr %69, align 8
  %70 = load i32, ptr getelementptr inbounds (%struct._zend_phpdbg_globals, ptr @phpdbg_globals, i32 0, i32 11), align 8
  %71 = call i32 (i32, i64, ...) @ioctl(i32 noundef %70, i64 noundef 3223366144, ptr noundef %13) #11
  %72 = load i32, ptr getelementptr inbounds (%struct._zend_phpdbg_globals, ptr @phpdbg_globals, i32 0, i32 11), align 8
  %73 = call i32 (i32, i64, ...) @ioctl(i32 noundef %72, i64 noundef 3222841862, ptr noundef %14) #11
  br label %80

74:                                               ; preds = %56
  %75 = getelementptr inbounds %struct.uffdio_register, ptr %15, i32 0, i32 0
  call void @llvm.memcpy.p0.p0.i64(ptr align 8 %75, ptr align 8 %12, i64 16, i1 false)
  %76 = getelementptr inbounds %struct.uffdio_register, ptr %15, i32 0, i32 1
  store i64 2, ptr %76, align 8
  %77 = getelementptr inbounds %struct.uffdio_register, ptr %15, i32 0, i32 2
  store i64 0, ptr %77, align 8
  %78 = load i32, ptr getelementptr inbounds (%struct._zend_phpdbg_globals, ptr @phpdbg_globals, i32 0, i32 11), align 8
  %79 = call i32 (i32, i64, ...) @ioctl(i32 noundef %78, i64 noundef 2148575745, ptr noundef %15) #11
  br label %80

80:                                               ; preds = %74, %64
  br label %86

81:                                               ; preds = %2
  %82 = load ptr, ptr %10, align 8
  %83 = load i64, ptr %11, align 8
  %84 = load i32, ptr %9, align 4
  %85 = call i32 @mprotect(ptr noundef %82, i64 noundef %83, i32 noundef %84) #11
  br label %86

86:                                               ; preds = %81, %80
  ret void
}

; Function Attrs: nounwind uwtable
define internal void @phpdbg_deactivate_watchpoint(ptr noundef %0) #0 {
  %2 = alloca ptr, align 8
  store ptr %0, ptr %2, align 8
  %3 = load ptr, ptr %2, align 8
  call void @phpdbg_change_watchpoint_access(ptr noundef %3, i32 noundef 3)
  ret void
}

; Function Attrs: nounwind uwtable
define internal void @phpdbg_remove_watchpoint_btree(ptr noundef %0) #0 {
  %2 = alloca ptr, align 8
  store ptr %0, ptr %2, align 8
  %3 = load ptr, ptr %2, align 8
  %4 = getelementptr inbounds %struct._phpdbg_watchpoint_t, ptr %3, i32 0, i32 0
  %5 = load ptr, ptr %4, align 8
  %6 = ptrtoint ptr %5 to i64
  %7 = call i32 @phpdbg_btree_delete(ptr noundef getelementptr inbounds (%struct._zend_phpdbg_globals, ptr @phpdbg_globals, i32 0, i32 13), i64 noundef %6)
  ret void
}

; Function Attrs: nounwind uwtable
define hidden void @phpdbg_delete_watch_collision(ptr noundef %0) #0 {
  %2 = alloca ptr, align 8
  %3 = alloca i32, align 4
  %4 = alloca i32, align 4
  %5 = alloca ptr, align 8
  %6 = alloca ptr, align 8
  %7 = alloca i64, align 8
  %8 = alloca ptr, align 8
  %9 = alloca ptr, align 8
  %10 = alloca ptr, align 8
  %11 = alloca ptr, align 8
  %12 = alloca ptr, align 8
  store ptr %0, ptr %11, align 8
  %13 = load ptr, ptr %11, align 8
  %14 = getelementptr inbounds %struct._phpdbg_watchpoint_t, ptr %13, i32 0, i32 3
  %15 = load ptr, ptr %14, align 8
  %16 = ptrtoint ptr %15 to i64
  store ptr getelementptr inbounds (%struct._zend_phpdbg_globals, ptr @phpdbg_globals, i32 0, i32 16), ptr %6, align 8
  store i64 %16, ptr %7, align 8
  %17 = load ptr, ptr %6, align 8
  %18 = load i64, ptr %7, align 8
  %19 = call ptr @zend_hash_index_find(ptr noundef %17, i64 noundef %18) #11
  store ptr %19, ptr %8, align 8
  %20 = load ptr, ptr %8, align 8
  %21 = icmp ne ptr %20, null
  br i1 %21, label %22, label %28

22:                                               ; preds = %1
  %23 = load ptr, ptr %8, align 8
  %24 = load ptr, ptr %23, align 8
  %25 = icmp ne ptr %24, null
  call void @llvm.assume(i1 %25)
  %26 = load ptr, ptr %8, align 8
  %27 = load ptr, ptr %26, align 8
  store ptr %27, ptr %5, align 8
  br label %29

28:                                               ; preds = %1
  store ptr null, ptr %5, align 8
  br label %29

29:                                               ; preds = %28, %22
  %30 = load ptr, ptr %5, align 8
  store ptr %30, ptr %12, align 8
  %31 = icmp ne ptr %30, null
  br i1 %31, label %32, label %123

32:                                               ; preds = %29
  %33 = load ptr, ptr %12, align 8
  %34 = getelementptr inbounds %struct._phpdbg_watch_collision, ptr %33, i32 0, i32 2
  %35 = load ptr, ptr %11, align 8
  %36 = ptrtoint ptr %35 to i64
  %37 = call i32 @zend_hash_index_del(ptr noundef %34, i64 noundef %36)
  %38 = load ptr, ptr %12, align 8
  %39 = getelementptr inbounds %struct._phpdbg_watch_collision, ptr %38, i32 0, i32 2
  store ptr %39, ptr %10, align 8
  %40 = load ptr, ptr %10, align 8
  %41 = getelementptr inbounds %struct._zend_array, ptr %40, i32 0, i32 5
  %42 = load i32, ptr %41, align 4
  %43 = icmp eq i32 %42, 0
  br i1 %43, label %44, label %122

44:                                               ; preds = %32
  %45 = load ptr, ptr %12, align 8
  %46 = getelementptr inbounds %struct._phpdbg_watch_collision, ptr %45, i32 0, i32 0
  call void @phpdbg_remove_watchpoint_btree(ptr noundef %46)
  %47 = load ptr, ptr %12, align 8
  %48 = getelementptr inbounds %struct._phpdbg_watch_collision, ptr %47, i32 0, i32 0
  call void @phpdbg_deactivate_watchpoint(ptr noundef %48)
  %49 = load ptr, ptr %12, align 8
  %50 = getelementptr inbounds %struct._phpdbg_watch_collision, ptr %49, i32 0, i32 0
  %51 = getelementptr inbounds %struct._phpdbg_watchpoint_t, ptr %50, i32 0, i32 2
  %52 = load i32, ptr %51, align 8
  %53 = icmp eq i32 %52, 0
  br i1 %53, label %54, label %57

54:                                               ; preds = %44
  %55 = load ptr, ptr %12, align 8
  %56 = getelementptr inbounds %struct._phpdbg_watch_collision, ptr %55, i32 0, i32 0
  call void @phpdbg_delete_watch_collision(ptr noundef %56)
  br label %113

57:                                               ; preds = %44
  %58 = load ptr, ptr %12, align 8
  %59 = getelementptr inbounds %struct._phpdbg_watch_collision, ptr %58, i32 0, i32 1
  %60 = getelementptr inbounds %struct._phpdbg_watchpoint_t, ptr %59, i32 0, i32 0
  %61 = load ptr, ptr %60, align 8
  %62 = icmp ne ptr %61, null
  br i1 %62, label %63, label %112

63:                                               ; preds = %57
  %64 = load ptr, ptr %12, align 8
  %65 = getelementptr inbounds %struct._phpdbg_watch_collision, ptr %64, i32 0, i32 1
  call void @phpdbg_remove_watchpoint_btree(ptr noundef %65)
  %66 = load ptr, ptr %12, align 8
  %67 = getelementptr inbounds %struct._phpdbg_watch_collision, ptr %66, i32 0, i32 1
  call void @phpdbg_deactivate_watchpoint(ptr noundef %67)
  %68 = load ptr, ptr %12, align 8
  %69 = getelementptr inbounds %struct._phpdbg_watch_collision, ptr %68, i32 0, i32 1
  call void @phpdbg_delete_watch_collision(ptr noundef %69)
  %70 = load ptr, ptr %12, align 8
  %71 = getelementptr inbounds %struct._phpdbg_watch_collision, ptr %70, i32 0, i32 1
  %72 = getelementptr inbounds %struct._phpdbg_watchpoint_t, ptr %71, i32 0, i32 2
  %73 = load i32, ptr %72, align 8
  %74 = icmp eq i32 %73, 3
  br i1 %74, label %75, label %111

75:                                               ; preds = %63
  %76 = load ptr, ptr %12, align 8
  %77 = getelementptr inbounds %struct._phpdbg_watch_collision, ptr %76, i32 0, i32 1
  %78 = getelementptr inbounds %struct._phpdbg_watchpoint_t, ptr %77, i32 0, i32 6
  %79 = load ptr, ptr %78, align 8
  store ptr %79, ptr %9, align 8
  %80 = load ptr, ptr %9, align 8
  %81 = getelementptr inbounds %struct._zend_refcounted_h, ptr %80, i32 0, i32 1
  %82 = load i32, ptr %81, align 4
  store i32 %82, ptr %3, align 4
  %83 = load i32, ptr %3, align 4
  %84 = and i32 %83, 1008
  %85 = and i32 %84, 64
  %86 = icmp ne i32 %85, 0
  br i1 %86, label %110, label %87

87:                                               ; preds = %75
  %88 = load ptr, ptr %9, align 8
  store ptr %88, ptr %2, align 8
  %89 = load ptr, ptr %2, align 8
  %90 = load i32, ptr %89, align 4
  %91 = icmp ugt i32 %90, 0
  call void @llvm.assume(i1 %91)
  %92 = load ptr, ptr %2, align 8
  %93 = load i32, ptr %92, align 4
  %94 = add i32 %93, -1
  store i32 %94, ptr %92, align 4
  %95 = icmp eq i32 %94, 0
  br i1 %95, label %96, label %109

96:                                               ; preds = %87
  %97 = load ptr, ptr %9, align 8
  %98 = getelementptr inbounds %struct._zend_refcounted_h, ptr %97, i32 0, i32 1
  %99 = load i32, ptr %98, align 4
  store i32 %99, ptr %4, align 4
  %100 = load i32, ptr %4, align 4
  %101 = and i32 %100, 1008
  %102 = and i32 %101, 128
  %103 = icmp ne i32 %102, 0
  br i1 %103, label %104, label %106

104:                                              ; preds = %96
  %105 = load ptr, ptr %9, align 8
  call void @free(ptr noundef %105) #11
  br label %108

106:                                              ; preds = %96
  %107 = load ptr, ptr %9, align 8
  call void @_efree(ptr noundef %107) #11
  br label %108

108:                                              ; preds = %106, %104
  br label %109

109:                                              ; preds = %108, %87
  br label %110

110:                                              ; preds = %109, %75
  br label %111

111:                                              ; preds = %110, %63
  br label %112

112:                                              ; preds = %111, %57
  br label %113

113:                                              ; preds = %112, %54
  %114 = load ptr, ptr %11, align 8
  %115 = getelementptr inbounds %struct._phpdbg_watchpoint_t, ptr %114, i32 0, i32 3
  %116 = load ptr, ptr %115, align 8
  %117 = ptrtoint ptr %116 to i64
  %118 = call i32 @zend_hash_index_del(ptr noundef getelementptr inbounds (%struct._zend_phpdbg_globals, ptr @phpdbg_globals, i32 0, i32 16), i64 noundef %117)
  %119 = load ptr, ptr %12, align 8
  %120 = getelementptr inbounds %struct._phpdbg_watch_collision, ptr %119, i32 0, i32 2
  call void @zend_hash_destroy(ptr noundef %120)
  %121 = load ptr, ptr %12, align 8
  call void @_efree(ptr noundef %121)
  br label %122

122:                                              ; preds = %113, %32
  br label %123

123:                                              ; preds = %122, %29
  ret void
}