; Function Attrs: nounwind uwtable
define hidden void @phpdbg_delete_watch_collision(ptr noundef %0) local_unnamed_addr #0 {
  %2 = alloca %struct.uffdio_register, align 8
  %3 = alloca %struct.uffdio_register, align 8
  %4 = getelementptr inbounds i8, ptr %0, i64 24
  %5 = load ptr, ptr %4, align 8
  %6 = ptrtoint ptr %5 to i64
  %7 = tail call ptr @zend_hash_index_find(ptr noundef nonnull getelementptr inbounds (%struct._zend_phpdbg_globals, ptr @phpdbg_globals, i64 0, i32 16), i64 noundef %6) #17
  %.not = icmp eq ptr %7, null
  br i1 %.not, label %.thread, label %8

8:                                                ; preds = %1
  %9 = load ptr, ptr %7, align 8, !nonnull !4, !noundef !4
  %10 = getelementptr inbounds i8, ptr %9, i64 304
  %11 = ptrtoint ptr %0 to i64
  %12 = tail call i32 @zend_hash_index_del(ptr noundef nonnull %10, i64 noundef %11) #17
  %13 = getelementptr inbounds i8, ptr %9, i64 332
  %14 = load i32, ptr %13, align 4
  %15 = icmp eq i32 %14, 0
  br i1 %15, label %16, label %.thread

16:                                               ; preds = %8
  %.0.val = load ptr, ptr %9, align 8
  %17 = ptrtoint ptr %.0.val to i64
  %18 = tail call i32 @phpdbg_btree_delete(ptr noundef nonnull getelementptr inbounds (%struct._zend_phpdbg_globals, ptr @phpdbg_globals, i64 0, i32 13), i64 noundef %17) #17
  %.0.val37 = load ptr, ptr %9, align 8
  %19 = getelementptr i8, ptr %9, i64 8
  %.0.val38 = load i64, ptr %19, align 8
  call void @llvm.lifetime.start.p0(i64 32, ptr nonnull %3)
  %20 = ptrtoint ptr %.0.val37 to i64
  %21 = load i64, ptr @phpdbg_pagesize, align 8
  %22 = sub i64 0, %21
  %23 = and i64 %22, %20
  %24 = add i64 %.0.val38, -1
  %25 = add i64 %24, %20
  %26 = and i64 %25, %22
  %27 = sub i64 %26, %23
  %28 = add i64 %27, %21
  %29 = load i32, ptr getelementptr inbounds (%struct._zend_phpdbg_globals, ptr @phpdbg_globals, i64 0, i32 11), align 8
  %.not.i.i = icmp eq i32 %29, 0
  br i1 %.not.i.i, label %34, label %30

30:                                               ; preds = %16
  store i64 %23, ptr %3, align 8
  %.sroa.4.0..sroa_idx5.i.i = getelementptr inbounds i8, ptr %3, i64 8
  store i64 %28, ptr %.sroa.4.0..sroa_idx5.i.i, align 8
  %31 = getelementptr inbounds i8, ptr %3, i64 16
  store i64 2, ptr %31, align 8
  %32 = getelementptr inbounds i8, ptr %3, i64 24
  store i64 0, ptr %32, align 8
  %33 = call i32 (i32, i64, ...) @ioctl(i32 noundef %29, i64 noundef 2148575745, ptr noundef nonnull %3) #17
  br label %phpdbg_deactivate_watchpoint.exit

34:                                               ; preds = %16
  %35 = inttoptr i64 %23 to ptr
  %36 = tail call i32 @mprotect(ptr noundef %35, i64 noundef %28, i32 noundef 3) #17
  br label %phpdbg_deactivate_watchpoint.exit

phpdbg_deactivate_watchpoint.exit:                ; preds = %30, %34
  call void @llvm.lifetime.end.p0(i64 32, ptr nonnull %3)
  %37 = getelementptr inbounds i8, ptr %9, i64 16
  %38 = load i32, ptr %37, align 8
  %39 = icmp eq i32 %38, 0
  br i1 %39, label %40, label %41

40:                                               ; preds = %phpdbg_deactivate_watchpoint.exit
  call void @phpdbg_delete_watch_collision(ptr noundef nonnull %9)
  br label %83

41:                                               ; preds = %phpdbg_deactivate_watchpoint.exit
  %42 = getelementptr inbounds i8, ptr %9, i64 152
  %43 = load ptr, ptr %42, align 8
  %.not34 = icmp eq ptr %43, null
  br i1 %.not34, label %83, label %44

44:                                               ; preds = %41
  %45 = ptrtoint ptr %43 to i64
  %46 = call i32 @phpdbg_btree_delete(ptr noundef nonnull getelementptr inbounds (%struct._zend_phpdbg_globals, ptr @phpdbg_globals, i64 0, i32 13), i64 noundef %45) #17
  %.val39 = load ptr, ptr %42, align 8
  %47 = getelementptr i8, ptr %9, i64 160
  %.val40 = load i64, ptr %47, align 8
  call void @llvm.lifetime.start.p0(i64 32, ptr nonnull %2)
  %48 = ptrtoint ptr %.val39 to i64
  %49 = load i64, ptr @phpdbg_pagesize, align 8
  %50 = sub i64 0, %49
  %51 = and i64 %50, %48
  %52 = add i64 %.val40, -1
  %53 = add i64 %52, %48
  %54 = and i64 %53, %50
  %55 = sub i64 %54, %51
  %56 = add i64 %55, %49
  %57 = load i32, ptr getelementptr inbounds (%struct._zend_phpdbg_globals, ptr @phpdbg_globals, i64 0, i32 11), align 8
  %.not.i.i41 = icmp eq i32 %57, 0
  br i1 %.not.i.i41, label %62, label %58

58:                                               ; preds = %44
  store i64 %51, ptr %2, align 8
  %.sroa.4.0..sroa_idx5.i.i42 = getelementptr inbounds i8, ptr %2, i64 8
  store i64 %56, ptr %.sroa.4.0..sroa_idx5.i.i42, align 8
  %59 = getelementptr inbounds i8, ptr %2, i64 16
  store i64 2, ptr %59, align 8
  %60 = getelementptr inbounds i8, ptr %2, i64 24
  store i64 0, ptr %60, align 8
  %61 = call i32 (i32, i64, ...) @ioctl(i32 noundef %57, i64 noundef 2148575745, ptr noundef nonnull %2) #17
  br label %phpdbg_deactivate_watchpoint.exit43

62:                                               ; preds = %44
  %63 = inttoptr i64 %51 to ptr
  %64 = call i32 @mprotect(ptr noundef %63, i64 noundef %56, i32 noundef 3) #17
  br label %phpdbg_deactivate_watchpoint.exit43

phpdbg_deactivate_watchpoint.exit43:              ; preds = %58, %62
  call void @llvm.lifetime.end.p0(i64 32, ptr nonnull %2)
  call void @phpdbg_delete_watch_collision(ptr noundef nonnull %42)
  %65 = getelementptr inbounds i8, ptr %9, i64 168
  %66 = load i32, ptr %65, align 8
  %67 = icmp eq i32 %66, 3
  br i1 %67, label %68, label %83

68:                                               ; preds = %phpdbg_deactivate_watchpoint.exit43
  %69 = getelementptr inbounds i8, ptr %9, i64 248
  %70 = load ptr, ptr %69, align 8
  %71 = getelementptr inbounds i8, ptr %70, i64 4
  %72 = load i32, ptr %71, align 4
  %73 = and i32 %72, 64
  %.not35 = icmp eq i32 %73, 0
  br i1 %.not35, label %74, label %83

74:                                               ; preds = %68
  %75 = load i32, ptr %70, align 4
  %76 = icmp ne i32 %75, 0
  call void @llvm.assume(i1 %76)
  %77 = add i32 %75, -1
  store i32 %77, ptr %70, align 4
  %78 = icmp eq i32 %77, 0
  br i1 %78, label %79, label %83

79:                                               ; preds = %74
  %80 = and i32 %72, 128
  %.not36 = icmp eq i32 %80, 0
  br i1 %.not36, label %82, label %81

81:                                               ; preds = %79
  call void @free(ptr noundef nonnull %70) #17
  br label %83

82:                                               ; preds = %79
  call void @_efree(ptr noundef nonnull %70) #17
  br label %83

83:                                               ; preds = %41, %68, %81, %82, %74, %phpdbg_deactivate_watchpoint.exit43, %40
  %84 = load ptr, ptr %4, align 8
  %85 = ptrtoint ptr %84 to i64
  %86 = call i32 @zend_hash_index_del(ptr noundef nonnull getelementptr inbounds (%struct._zend_phpdbg_globals, ptr @phpdbg_globals, i64 0, i32 16), i64 noundef %85) #17
  call void @zend_hash_destroy(ptr noundef nonnull %10) #17
  call void @_efree(ptr noundef nonnull %9) #17
  br label %.thread

.thread:                                          ; preds = %1, %8, %83
  ret void
}